target datalayout = "e-m:e-p270:32:32-p271:32:32-p272:64:64-i64:64-i128:128-f80:128-n8:16:32:64-S128"
target triple = "x86_64-pc-linux-gnu"

%struct.KDF_ARGON2 = type { ptr, i32, ptr, i32, ptr, i32, ptr, i32, ptr, i32, i32, i32, i32, i32, i32, i32, i32, ptr, i32, i32, i32, i32, ptr, ptr, ptr, ptr }

@.str = private unnamed_addr constant [51 x i8] c"../openssl/providers/implementations/kdfs/argon2.c\00", align 1
@.str.1 = private unnamed_addr constant [11 x i8] c"blake2bmac\00", align 1
@__func__.kdf_argon2_derive = private unnamed_addr constant [18 x i8] c"kdf_argon2_derive\00", align 1
@.str.2 = private unnamed_addr constant [24 x i8] c"cannot fetch blake2bmac\00", align 1
@.str.3 = private unnamed_addr constant [11 x i8] c"blake2b512\00", align 1
@.str.4 = private unnamed_addr constant [24 x i8] c"cannot fetch blake2b512\00", align 1
@.str.5 = private unnamed_addr constant [5 x i8] c"size\00", align 1
@.str.6 = private unnamed_addr constant [20 x i8] c"invalid Argon2 type\00", align 1
@.str.7 = private unnamed_addr constant [36 x i8] c"requested %u threads, available: %u\00", align 1
@.str.8 = private unnamed_addr constant [44 x i8] c"requested more threads (%u) than lanes (%u)\00", align 1
@.str.9 = private unnamed_addr constant [65 x i8] c"m_cost must be greater or equal than 8 times the number of lanes\00", align 1

; Function Attrs: nounwind uwtable
define internal i32 @kdf_argon2_derive(ptr noundef %0, ptr noundef %1, i64 noundef %2, ptr noundef %3) #0 {
  %5 = alloca i32, align 4
  %6 = alloca ptr, align 8
  %7 = alloca ptr, align 8
  %8 = alloca i64, align 8
  %9 = alloca ptr, align 8
  %10 = alloca ptr, align 8
  %11 = alloca i32, align 4
  %12 = alloca i32, align 4
  %13 = alloca i32, align 4
  store ptr %0, ptr %6, align 8, !tbaa !3
  store ptr %1, ptr %7, align 8, !tbaa !28
  store i64 %2, ptr %8, align 8, !tbaa !29
  store ptr %3, ptr %9, align 8, !tbaa !31
  call void @llvm.lifetime.start.p0(i64 8, ptr %10) #6
  call void @llvm.lifetime.start.p0(i64 4, ptr %11) #6
  call void @llvm.lifetime.start.p0(i64 4, ptr %12) #6
  %14 = load ptr, ptr %6, align 8, !tbaa !3
  store ptr %14, ptr %10, align 8, !tbaa !3
  %15 = call i32 @ossl_prov_is_running()
  %16 = icmp ne i32 %15, 0
  br i1 %16, label %17, label %22

17:                                               ; preds = %4
  %18 = load ptr, ptr %6, align 8, !tbaa !3
  %19 = load ptr, ptr %9, align 8, !tbaa !31
  %20 = call i32 @kdf_argon2_set_ctx_params(ptr noundef %18, ptr noundef %19)
  %21 = icmp ne i32 %20, 0
  br i1 %21, label %23, label %22

22:                                               ; preds = %17, %4
  store i32 0, ptr %5, align 4
  store i32 1, ptr %13, align 4
  br label %208

23:                                               ; preds = %17
  %24 = load ptr, ptr %10, align 8, !tbaa !3
  %25 = getelementptr inbounds nuw %struct.KDF_ARGON2, ptr %24, i32 0, i32 24
  %26 = load ptr, ptr %25, align 8, !tbaa !23
  %27 = icmp eq ptr %26, null
  br i1 %27, label %28, label %38

28:                                               ; preds = %23
  %29 = load ptr, ptr %10, align 8, !tbaa !3
  %30 = getelementptr inbounds nuw %struct.KDF_ARGON2, ptr %29, i32 0, i32 22
  %31 = load ptr, ptr %30, align 8, !tbaa !7
  %32 = load ptr, ptr %10, align 8, !tbaa !3
  %33 = getelementptr inbounds nuw %struct.KDF_ARGON2, ptr %32, i32 0, i32 25
  %34 = load ptr, ptr %33, align 8, !tbaa !24
  %35 = call ptr @EVP_MAC_fetch(ptr noundef %31, ptr noundef @.str.1, ptr noundef %34)
  %36 = load ptr, ptr %10, align 8, !tbaa !3
  %37 = getelementptr inbounds nuw %struct.KDF_ARGON2, ptr %36, i32 0, i32 24
  store ptr %35, ptr %37, align 8, !tbaa !23
  br label %38

38:                                               ; preds = %28, %23
  %39 = load ptr, ptr %10, align 8, !tbaa !3
  %40 = getelementptr inbounds nuw %struct.KDF_ARGON2, ptr %39, i32 0, i32 24
  %41 = load ptr, ptr %40, align 8, !tbaa !23
  %42 = icmp eq ptr %41, null
  br i1 %42, label %43, label %44

43:                                               ; preds = %38
  call void @ERR_new()
  call void @ERR_set_debug(ptr noundef @.str, i32 noundef 1028, ptr noundef @__func__.kdf_argon2_derive)
  call void (i32, i32, ptr, ...) @ERR_set_error(i32 noundef 57, i32 noundef 150, ptr noundef @.str.2)
  store i32 0, ptr %5, align 4
  store i32 1, ptr %13, align 4
  br label %208

44:                                               ; preds = %38
  %45 = load ptr, ptr %10, align 8, !tbaa !3
  %46 = getelementptr inbounds nuw %struct.KDF_ARGON2, ptr %45, i32 0, i32 23
  %47 = load ptr, ptr %46, align 8, !tbaa !22
  %48 = icmp eq ptr %47, null
  br i1 %48, label %49, label %59

49:                                               ; preds = %44
  %50 = load ptr, ptr %10, align 8, !tbaa !3
  %51 = getelementptr inbounds nuw %struct.KDF_ARGON2, ptr %50, i32 0, i32 22
  %52 = load ptr, ptr %51, align 8, !tbaa !7
  %53 = load ptr, ptr %10, align 8, !tbaa !3
  %54 = getelementptr inbounds nuw %struct.KDF_ARGON2, ptr %53, i32 0, i32 25
  %55 = load ptr, ptr %54, align 8, !tbaa !24
  %56 = call ptr @EVP_MD_fetch(ptr noundef %52, ptr noundef @.str.3, ptr noundef %55)
  %57 = load ptr, ptr %10, align 8, !tbaa !3
  %58 = getelementptr inbounds nuw %struct.KDF_ARGON2, ptr %57, i32 0, i32 23
  store ptr %56, ptr %58, align 8, !tbaa !22
  br label %59

59:                                               ; preds = %49, %44
  %60 = load ptr, ptr %10, align 8, !tbaa !3
  %61 = getelementptr inbounds nuw %struct.KDF_ARGON2, ptr %60, i32 0, i32 23
  %62 = load ptr, ptr %61, align 8, !tbaa !22
  %63 = icmp eq ptr %62, null
  br i1 %63, label %64, label %65

64:                                               ; preds = %59
  call void @ERR_new()
  call void @ERR_set_debug(ptr noundef @.str, i32 noundef 1036, ptr noundef @__func__.kdf_argon2_derive)
  call void (i32, i32, ptr, ...) @ERR_set_error(i32 noundef 57, i32 noundef 129, ptr noundef @.str.4)
  store i32 0, ptr %5, align 4
  store i32 1, ptr %13, align 4
  br label %208

65:                                               ; preds = %59
  %66 = load ptr, ptr %10, align 8, !tbaa !3
  %67 = getelementptr inbounds nuw %struct.KDF_ARGON2, ptr %66, i32 0, i32 4
  %68 = load ptr, ptr %67, align 8, !tbaa !16
  %69 = icmp eq ptr %68, null
  br i1 %69, label %75, label %70

70:                                               ; preds = %65
  %71 = load ptr, ptr %10, align 8, !tbaa !3
  %72 = getelementptr inbounds nuw %struct.KDF_ARGON2, ptr %71, i32 0, i32 5
  %73 = load i32, ptr %72, align 8, !tbaa !17
  %74 = icmp eq i32 %73, 0
  br i1 %74, label %75, label %76

75:                                               ; preds = %70, %65
  call void @ERR_new()
  call void @ERR_set_debug(ptr noundef @.str, i32 noundef 1042, ptr noundef @__func__.kdf_argon2_derive)
  call void (i32, i32, ptr, ...) @ERR_set_error(i32 noundef 57, i32 noundef 131, ptr noundef null)
  store i32 0, ptr %5, align 4
  store i32 1, ptr %13, align 4
  br label %208

76:                                               ; preds = %70
  %77 = load i64, ptr %8, align 8, !tbaa !29
  %78 = load ptr, ptr %10, align 8, !tbaa !3
  %79 = getelementptr inbounds nuw %struct.KDF_ARGON2, ptr %78, i32 0, i32 1
  %80 = load i32, ptr %79, align 8, !tbaa !33
  %81 = zext i32 %80 to i64
  %82 = icmp ne i64 %77, %81
  br i1 %82, label %83, label %96

83:                                               ; preds = %76
  %84 = load ptr, ptr %9, align 8, !tbaa !31
  %85 = call ptr @OSSL_PARAM_locate(ptr noundef %84, ptr noundef @.str.5)
  %86 = icmp ne ptr %85, null
  br i1 %86, label %87, label %88

87:                                               ; preds = %83
  call void @ERR_new()
  call void @ERR_set_debug(ptr noundef @.str, i32 noundef 1048, ptr noundef @__func__.kdf_argon2_derive)
  call void (i32, i32, ptr, ...) @ERR_set_error(i32 noundef 57, i32 noundef 106, ptr noundef null)
  store i32 0, ptr %5, align 4
  store i32 1, ptr %13, align 4
  br label %208

88:                                               ; preds = %83
  %89 = load ptr, ptr %10, align 8, !tbaa !3
  %90 = load i64, ptr %8, align 8, !tbaa !29
  %91 = trunc i64 %90 to i32
  %92 = call i32 @kdf_argon2_ctx_set_out_length(ptr noundef %89, i32 noundef %91)
  %93 = icmp ne i32 %92, 0
  br i1 %93, label %95, label %94

94:                                               ; preds = %88
  store i32 0, ptr %5, align 4
  store i32 1, ptr %13, align 4
  br label %208

95:                                               ; preds = %88
  br label %96

96:                                               ; preds = %95, %76
  %97 = load ptr, ptr %10, align 8, !tbaa !3
  %98 = getelementptr inbounds nuw %struct.KDF_ARGON2, ptr %97, i32 0, i32 16
  %99 = load i32, ptr %98, align 4, !tbaa !25
  switch i32 %99, label %101 [
    i32 0, label %100
    i32 1, label %100
    i32 2, label %100
  ]

100:                                              ; preds = %96, %96, %96
  br label %102

101:                                              ; preds = %96
  call void @ERR_new()
  call void @ERR_set_debug(ptr noundef @.str, i32 noundef 1061, ptr noundef @__func__.kdf_argon2_derive)
  call void (i32, i32, ptr, ...) @ERR_set_error(i32 noundef 57, i32 noundef 125, ptr noundef @.str.6)
  store i32 0, ptr %5, align 4
  store i32 1, ptr %13, align 4
  br label %208

102:                                              ; preds = %100
  %103 = load ptr, ptr %10, align 8, !tbaa !3
  %104 = getelementptr inbounds nuw %struct.KDF_ARGON2, ptr %103, i32 0, i32 13
  %105 = load i32, ptr %104, align 8, !tbaa !34
  %106 = icmp ugt i32 %105, 1
  br i1 %106, label %107, label %141

107:                                              ; preds = %102
  %108 = load ptr, ptr %10, align 8, !tbaa !3
  %109 = getelementptr inbounds nuw %struct.KDF_ARGON2, ptr %108, i32 0, i32 13
  %110 = load i32, ptr %109, align 8, !tbaa !34
  %111 = zext i32 %110 to i64
  %112 = load ptr, ptr %10, align 8, !tbaa !3
  %113 = getelementptr inbounds nuw %struct.KDF_ARGON2, ptr %112, i32 0, i32 22
  %114 = load ptr, ptr %113, align 8, !tbaa !7
  %115 = call i64 @ossl_get_avail_threads(ptr noundef %114)
  %116 = icmp ugt i64 %111, %115
  br i1 %116, label %117, label %125

117:                                              ; preds = %107
  call void @ERR_new()
  call void @ERR_set_debug(ptr noundef @.str, i32 noundef 1073, ptr noundef @__func__.kdf_argon2_derive)
  %118 = load ptr, ptr %10, align 8, !tbaa !3
  %119 = getelementptr inbounds nuw %struct.KDF_ARGON2, ptr %118, i32 0, i32 13
  %120 = load i32, ptr %119, align 8, !tbaa !34
  %121 = load ptr, ptr %10, align 8, !tbaa !3
  %122 = getelementptr inbounds nuw %struct.KDF_ARGON2, ptr %121, i32 0, i32 22
  %123 = load ptr, ptr %122, align 8, !tbaa !7
  %124 = call i64 @ossl_get_avail_threads(ptr noundef %123)
  call void (i32, i32, ptr, ...) @ERR_set_error(i32 noundef 57, i32 noundef 234, ptr noundef @.str.7, i32 noundef %120, i64 noundef %124)
  store i32 0, ptr %5, align 4
  store i32 1, ptr %13, align 4
  br label %208

125:                                              ; preds = %107
  %126 = load ptr, ptr %10, align 8, !tbaa !3
  %127 = getelementptr inbounds nuw %struct.KDF_ARGON2, ptr %126, i32 0, i32 13
  %128 = load i32, ptr %127, align 8, !tbaa !34
  %129 = load ptr, ptr %10, align 8, !tbaa !3
  %130 = getelementptr inbounds nuw %struct.KDF_ARGON2, ptr %129, i32 0, i32 12
  %131 = load i32, ptr %130, align 4, !tbaa !35
  %132 = icmp ugt i32 %128, %131
  br i1 %132, label %133, label %140

133:                                              ; preds = %125
  call void @ERR_new()
  call void @ERR_set_debug(ptr noundef @.str, i32 noundef 1080, ptr noundef @__func__.kdf_argon2_derive)
  %134 = load ptr, ptr %10, align 8, !tbaa !3
  %135 = getelementptr inbounds nuw %struct.KDF_ARGON2, ptr %134, i32 0, i32 13
  %136 = load i32, ptr %135, align 8, !tbaa !34
  %137 = load ptr, ptr %10, align 8, !tbaa !3
  %138 = getelementptr inbounds nuw %struct.KDF_ARGON2, ptr %137, i32 0, i32 12
  %139 = load i32, ptr %138, align 4, !tbaa !35
  call void (i32, i32, ptr, ...) @ERR_set_error(i32 noundef 57, i32 noundef 234, ptr noundef @.str.8, i32 noundef %136, i32 noundef %139)
  store i32 0, ptr %5, align 4
  store i32 1, ptr %13, align 4
  br label %208

140:                                              ; preds = %125
  br label %141

141:                                              ; preds = %140, %102
  %142 = load ptr, ptr %10, align 8, !tbaa !3
  %143 = getelementptr inbounds nuw %struct.KDF_ARGON2, ptr %142, i32 0, i32 11
  %144 = load i32, ptr %143, align 8, !tbaa !36
  %145 = load ptr, ptr %10, align 8, !tbaa !3
  %146 = getelementptr inbounds nuw %struct.KDF_ARGON2, ptr %145, i32 0, i32 12
  %147 = load i32, ptr %146, align 4, !tbaa !35
  %148 = mul i32 8, %147
  %149 = icmp ult i32 %144, %148
  br i1 %149, label %150, label %151

150:                                              ; preds = %141
  call void @ERR_new()
  call void @ERR_set_debug(ptr noundef @.str, i32 noundef 1088, ptr noundef @__func__.kdf_argon2_derive)
  call void (i32, i32, ptr, ...) @ERR_set_error(i32 noundef 57, i32 noundef 235, ptr noundef @.str.9)
  store i32 0, ptr %5, align 4
  store i32 1, ptr %13, align 4
  br label %208

151:                                              ; preds = %141
  %152 = load ptr, ptr %10, align 8, !tbaa !3
  %153 = getelementptr inbounds nuw %struct.KDF_ARGON2, ptr %152, i32 0, i32 11
  %154 = load i32, ptr %153, align 8, !tbaa !36
  store i32 %154, ptr %11, align 4, !tbaa !26
  %155 = load i32, ptr %11, align 4, !tbaa !26
  %156 = load ptr, ptr %10, align 8, !tbaa !3
  %157 = getelementptr inbounds nuw %struct.KDF_ARGON2, ptr %156, i32 0, i32 12
  %158 = load i32, ptr %157, align 4, !tbaa !35
  %159 = mul i32 8, %158
  %160 = icmp ult i32 %155, %159
  br i1 %160, label %161, label %166

161:                                              ; preds = %151
  %162 = load ptr, ptr %10, align 8, !tbaa !3
  %163 = getelementptr inbounds nuw %struct.KDF_ARGON2, ptr %162, i32 0, i32 12
  %164 = load i32, ptr %163, align 4, !tbaa !35
  %165 = mul i32 8, %164
  store i32 %165, ptr %11, align 4, !tbaa !26
  br label %166

166:                                              ; preds = %161, %151
  %167 = load i32, ptr %11, align 4, !tbaa !26
  %168 = load ptr, ptr %10, align 8, !tbaa !3
  %169 = getelementptr inbounds nuw %struct.KDF_ARGON2, ptr %168, i32 0, i32 12
  %170 = load i32, ptr %169, align 4, !tbaa !35
  %171 = mul i32 %170, 4
  %172 = udiv i32 %167, %171
  store i32 %172, ptr %12, align 4, !tbaa !26
  %173 = load i32, ptr %12, align 4, !tbaa !26
  %174 = load ptr, ptr %10, align 8, !tbaa !3
  %175 = getelementptr inbounds nuw %struct.KDF_ARGON2, ptr %174, i32 0, i32 12
  %176 = load i32, ptr %175, align 4, !tbaa !35
  %177 = mul i32 %176, 4
  %178 = mul i32 %173, %177
  store i32 %178, ptr %11, align 4, !tbaa !26
  %179 = load ptr, ptr %10, align 8, !tbaa !3
  %180 = getelementptr inbounds nuw %struct.KDF_ARGON2, ptr %179, i32 0, i32 17
  store ptr null, ptr %180, align 8, !tbaa !37
  %181 = load i32, ptr %11, align 4, !tbaa !26
  %182 = load ptr, ptr %10, align 8, !tbaa !3
  %183 = getelementptr inbounds nuw %struct.KDF_ARGON2, ptr %182, i32 0, i32 19
  store i32 %181, ptr %183, align 4, !tbaa !38
  %184 = load i32, ptr %12, align 4, !tbaa !26
  %185 = load ptr, ptr %10, align 8, !tbaa !3
  %186 = getelementptr inbounds nuw %struct.KDF_ARGON2, ptr %185, i32 0, i32 20
  store i32 %184, ptr %186, align 8, !tbaa !39
  %187 = load ptr, ptr %10, align 8, !tbaa !3
  %188 = getelementptr inbounds nuw %struct.KDF_ARGON2, ptr %187, i32 0, i32 10
  %189 = load i32, ptr %188, align 4, !tbaa !40
  %190 = load ptr, ptr %10, align 8, !tbaa !3
  %191 = getelementptr inbounds nuw %struct.KDF_ARGON2, ptr %190, i32 0, i32 18
  store i32 %189, ptr %191, align 8, !tbaa !41
  %192 = load i32, ptr %12, align 4, !tbaa !26
  %193 = mul i32 %192, 4
  %194 = load ptr, ptr %10, align 8, !tbaa !3
  %195 = getelementptr inbounds nuw %struct.KDF_ARGON2, ptr %194, i32 0, i32 21
  store i32 %193, ptr %195, align 4, !tbaa !42
  %196 = load ptr, ptr %10, align 8, !tbaa !3
  %197 = call i32 @initialize(ptr noundef %196)
  %198 = icmp ne i32 %197, 1
  br i1 %198, label %199, label %200

199:                                              ; preds = %166
  store i32 0, ptr %5, align 4
  store i32 1, ptr %13, align 4
  br label %208

200:                                              ; preds = %166
  %201 = load ptr, ptr %10, align 8, !tbaa !3
  %202 = call i32 @fill_memory_blocks(ptr noundef %201)
  %203 = icmp ne i32 %202, 1
  br i1 %203, label %204, label %205

204:                                              ; preds = %200
  store i32 0, ptr %5, align 4
  store i32 1, ptr %13, align 4
  br label %208

205:                                              ; preds = %200
  %206 = load ptr, ptr %10, align 8, !tbaa !3
  %207 = load ptr, ptr %7, align 8, !tbaa !28
  call void @finalize(ptr noundef %206, ptr noundef %207)
  store i32 1, ptr %5, align 4
  store i32 1, ptr %13, align 4
  br label %208

208:                                              ; preds = %205, %204, %199, %150, %133, %117, %101, %94, %87, %75, %64, %43, %22
  call void @llvm.lifetime.end.p0(i64 4, ptr %12) #6
  call void @llvm.lifetime.end.p0(i64 4, ptr %11) #6
  call void @llvm.lifetime.end.p0(i64 8, ptr %10) #6
  %209 = load i32, ptr %5, align 4
  ret i32 %209
}