; Function Attrs: nounwind uwtable
define internal range(i32 0, 2) i32 @kdf_argon2_derive(ptr noundef %0, ptr noundef %1, i64 noundef %2, ptr noundef %3) #0 {
  %5 = tail call i32 @ossl_prov_is_running() #10
  %.not = icmp eq i32 %5, 0
  br i1 %.not, label %98, label %6

6:                                                ; preds = %4
  %7 = tail call i32 @kdf_argon2_set_ctx_params(ptr noundef %0, ptr noundef %3)
  %.not58 = icmp eq i32 %7, 0
  br i1 %.not58, label %98, label %8

8:                                                ; preds = %6
  %9 = getelementptr inbounds nuw i8, ptr %0, i64 144
  %10 = load ptr, ptr %9, align 8, !tbaa !29
  %11 = icmp eq ptr %10, null
  br i1 %11, label %12, label %.thread

12:                                               ; preds = %8
  %13 = getelementptr inbounds nuw i8, ptr %0, i64 128
  %14 = load ptr, ptr %13, align 8, !tbaa !3
  %15 = getelementptr inbounds nuw i8, ptr %0, i64 152
  %16 = load ptr, ptr %15, align 8, !tbaa !30
  %17 = tail call ptr @EVP_MAC_fetch(ptr noundef %14, ptr noundef nonnull @.str.1, ptr noundef %16) #10
  store ptr %17, ptr %9, align 8, !tbaa !29
  %18 = icmp eq ptr %17, null
  br i1 %18, label %19, label %.thread

19:                                               ; preds = %12
  tail call void @ERR_new() #10
  tail call void @ERR_set_debug(ptr noundef nonnull @.str, i32 noundef 1028, ptr noundef nonnull @__func__.kdf_argon2_derive) #10
  tail call void (i32, i32, ptr, ...) @ERR_set_error(i32 noundef 57, i32 noundef 150, ptr noundef nonnull @.str.2) #10
  br label %98

.thread:                                          ; preds = %8, %12
  %20 = getelementptr inbounds nuw i8, ptr %0, i64 136
  %21 = load ptr, ptr %20, align 8, !tbaa !28
  %22 = icmp eq ptr %21, null
  br i1 %22, label %23, label %.thread64

23:                                               ; preds = %.thread
  %24 = getelementptr inbounds nuw i8, ptr %0, i64 128
  %25 = load ptr, ptr %24, align 8, !tbaa !3
  %26 = getelementptr inbounds nuw i8, ptr %0, i64 152
  %27 = load ptr, ptr %26, align 8, !tbaa !30
  %28 = tail call ptr @EVP_MD_fetch(ptr noundef %25, ptr noundef nonnull @.str.3, ptr noundef %27) #10
  store ptr %28, ptr %20, align 8, !tbaa !28
  %29 = icmp eq ptr %28, null
  br i1 %29, label %30, label %.thread64

30:                                               ; preds = %23
  tail call void @ERR_new() #10
  tail call void @ERR_set_debug(ptr noundef nonnull @.str, i32 noundef 1036, ptr noundef nonnull @__func__.kdf_argon2_derive) #10
  tail call void (i32, i32, ptr, ...) @ERR_set_error(i32 noundef 57, i32 noundef 129, ptr noundef nonnull @.str.4) #10
  br label %98

.thread64:                                        ; preds = %.thread, %23
  %31 = getelementptr inbounds nuw i8, ptr %0, i64 32
  %32 = load ptr, ptr %31, align 8, !tbaa !22
  %33 = icmp eq ptr %32, null
  br i1 %33, label %38, label %34

34:                                               ; preds = %.thread64
  %35 = getelementptr inbounds nuw i8, ptr %0, i64 40
  %36 = load i32, ptr %35, align 8, !tbaa !23
  %37 = icmp eq i32 %36, 0
  br i1 %37, label %38, label %39

38:                                               ; preds = %34, %.thread64
  tail call void @ERR_new() #10
  tail call void @ERR_set_debug(ptr noundef nonnull @.str, i32 noundef 1042, ptr noundef nonnull @__func__.kdf_argon2_derive) #10
  tail call void (i32, i32, ptr, ...) @ERR_set_error(i32 noundef 57, i32 noundef 131, ptr noundef null) #10
  br label %98

39:                                               ; preds = %34
  %40 = getelementptr inbounds nuw i8, ptr %0, i64 8
  %41 = load i32, ptr %40, align 8, !tbaa !13
  %42 = zext i32 %41 to i64
  %.not59 = icmp eq i64 %2, %42
  br i1 %.not59, label %49, label %43

43:                                               ; preds = %39
  %44 = tail call ptr @OSSL_PARAM_locate(ptr noundef %3, ptr noundef nonnull @.str.5) #10
  %.not60 = icmp eq ptr %44, null
  br i1 %.not60, label %46, label %45

45:                                               ; preds = %43
  tail call void @ERR_new() #10
  tail call void @ERR_set_debug(ptr noundef nonnull @.str, i32 noundef 1048, ptr noundef nonnull @__func__.kdf_argon2_derive) #10
  tail call void (i32, i32, ptr, ...) @ERR_set_error(i32 noundef 57, i32 noundef 106, ptr noundef null) #10
  br label %98

46:                                               ; preds = %43
  %47 = trunc i64 %2 to i32
  %48 = tail call fastcc i32 @kdf_argon2_ctx_set_out_length(ptr noundef nonnull %0, i32 noundef %47)
  %.not61 = icmp eq i32 %48, 0
  br i1 %.not61, label %98, label %49

49:                                               ; preds = %46, %39
  %50 = getelementptr inbounds nuw i8, ptr %0, i64 100
  %51 = load i32, ptr %50, align 4, !tbaa !19
  %switch = icmp ult i32 %51, 3
  br i1 %switch, label %53, label %52

52:                                               ; preds = %49
  tail call void @ERR_new() #10
  tail call void @ERR_set_debug(ptr noundef nonnull @.str, i32 noundef 1061, ptr noundef nonnull @__func__.kdf_argon2_derive) #10
  tail call void (i32, i32, ptr, ...) @ERR_set_error(i32 noundef 57, i32 noundef 125, ptr noundef nonnull @.str.6) #10
  br label %98

53:                                               ; preds = %49
  %54 = getelementptr inbounds nuw i8, ptr %0, i64 88
  %55 = load i32, ptr %54, align 8, !tbaa !17
  %56 = icmp ugt i32 %55, 1
  br i1 %56, label %57, label %._crit_edge

._crit_edge:                                      ; preds = %53
  %.phi.trans.insert = getelementptr inbounds nuw i8, ptr %0, i64 84
  %.pre = load i32, ptr %.phi.trans.insert, align 4, !tbaa !16
  br label %75

57:                                               ; preds = %53
  %58 = zext i32 %55 to i64
  %59 = getelementptr inbounds nuw i8, ptr %0, i64 128
  %60 = load ptr, ptr %59, align 8, !tbaa !3
  %61 = tail call i64 @ossl_get_avail_threads(ptr noundef %60) #10
  %62 = icmp ult i64 %61, %58
  br i1 %62, label %63, label %67

63:                                               ; preds = %57
  tail call void @ERR_new() #10
  tail call void @ERR_set_debug(ptr noundef nonnull @.str, i32 noundef 1073, ptr noundef nonnull @__func__.kdf_argon2_derive) #10
  %64 = load i32, ptr %54, align 8, !tbaa !17
  %65 = load ptr, ptr %59, align 8, !tbaa !3
  %66 = tail call i64 @ossl_get_avail_threads(ptr noundef %65) #10
  tail call void (i32, i32, ptr, ...) @ERR_set_error(i32 noundef 57, i32 noundef 234, ptr noundef nonnull @.str.7, i32 noundef %64, i64 noundef %66) #10
  br label %98

67:                                               ; preds = %57
  %68 = load i32, ptr %54, align 8, !tbaa !17
  %69 = getelementptr inbounds nuw i8, ptr %0, i64 84
  %70 = load i32, ptr %69, align 4, !tbaa !16
  %71 = icmp ugt i32 %68, %70
  br i1 %71, label %72, label %75

72:                                               ; preds = %67
  tail call void @ERR_new() #10
  tail call void @ERR_set_debug(ptr noundef nonnull @.str, i32 noundef 1080, ptr noundef nonnull @__func__.kdf_argon2_derive) #10
  %73 = load i32, ptr %54, align 8, !tbaa !17
  %74 = load i32, ptr %69, align 4, !tbaa !16
  tail call void (i32, i32, ptr, ...) @ERR_set_error(i32 noundef 57, i32 noundef 234, ptr noundef nonnull @.str.8, i32 noundef %73, i32 noundef %74) #10
  br label %98

75:                                               ; preds = %._crit_edge, %67
  %76 = phi i32 [ %.pre, %._crit_edge ], [ %70, %67 ]
  %77 = getelementptr inbounds nuw i8, ptr %0, i64 80
  %78 = load i32, ptr %77, align 8, !tbaa !15
  %79 = shl i32 %76, 3
  %80 = icmp ult i32 %78, %79
  br i1 %80, label %81, label %82

81:                                               ; preds = %75
  tail call void @ERR_new() #10
  tail call void @ERR_set_debug(ptr noundef nonnull @.str, i32 noundef 1088, ptr noundef nonnull @__func__.kdf_argon2_derive) #10
  tail call void (i32, i32, ptr, ...) @ERR_set_error(i32 noundef 57, i32 noundef 235, ptr noundef nonnull @.str.9) #10
  br label %98

82:                                               ; preds = %75
  %83 = shl i32 %76, 2
  %84 = udiv i32 %78, %83
  %85 = mul i32 %84, %83
  %86 = getelementptr inbounds nuw i8, ptr %0, i64 104
  store ptr null, ptr %86, align 8, !tbaa !31
  %87 = getelementptr inbounds nuw i8, ptr %0, i64 116
  store i32 %85, ptr %87, align 4, !tbaa !32
  %88 = getelementptr inbounds nuw i8, ptr %0, i64 120
  store i32 %84, ptr %88, align 8, !tbaa !33
  %89 = getelementptr inbounds nuw i8, ptr %0, i64 76
  %90 = load i32, ptr %89, align 4, !tbaa !14
  %91 = getelementptr inbounds nuw i8, ptr %0, i64 112
  store i32 %90, ptr %91, align 8, !tbaa !34
  %92 = shl i32 %84, 2
  %93 = getelementptr inbounds nuw i8, ptr %0, i64 124
  store i32 %92, ptr %93, align 4, !tbaa !35
  %94 = tail call fastcc i32 @initialize(ptr noundef nonnull %0)
  %.not62.not = icmp eq i32 %94, 0
  br i1 %.not62.not, label %98, label %95

95:                                               ; preds = %82
  %96 = tail call fastcc i32 @fill_memory_blocks(ptr noundef nonnull %0)
  %.not63.not = icmp eq i32 %96, 0
  br i1 %.not63.not, label %98, label %97

97:                                               ; preds = %95
  tail call fastcc void @finalize(ptr noundef nonnull %0, ptr noundef %1)
  br label %98

98:                                               ; preds = %95, %82, %46, %4, %6, %97, %81, %72, %63, %52, %45, %38, %30, %19
  %.0 = phi i32 [ 0, %19 ], [ 0, %30 ], [ 0, %38 ], [ 0, %45 ], [ 0, %52 ], [ 0, %63 ], [ 0, %72 ], [ 0, %81 ], [ 1, %97 ], [ 0, %6 ], [ 0, %4 ], [ 0, %46 ], [ 0, %82 ], [ 0, %95 ]
  ret i32 %.0
}